   1               		.file	"klepsydra.c"
   2               	__SREG__ = 0x3f
   3               	__SP_H__ = 0x3e
   4               	__SP_L__ = 0x3d
   5               	__CCP__  = 0x34
   6               	__tmp_reg__ = 0
   7               	__zero_reg__ = 1
  15               	.Ltext0:
  16               	.global	wartoscAdc
  18               	wartoscAdc:
  19               	.LFB7:
  20               	.LM1:
  21               	/* prologue: function */
  22               	/* frame size = 0 */
  23               	.L2:
  24               	.LM2:
  25 0000 349B      		sbis 38-32,4
  26 0002 00C0      		rjmp .L2
  27               	.LM3:
  28 0004 349A      		sbi 38-32,4
  29               	.LM4:
  30 0006 85B1      		in r24,37-32
  31               	.LM5:
  32 0008 90E0      		ldi r25,lo8(0)
  33               	/* epilogue start */
  34 000a 0895      		ret
  35               	.LFE7:
  37               	.global	main
  39               	main:
  40               	.LFB8:
  41               	.LM6:
  42 000c 2F92      		push r2
  43 000e 3F92      		push r3
  44 0010 4F92      		push r4
  45 0012 5F92      		push r5
  46 0014 6F92      		push r6
  47 0016 7F92      		push r7
  48 0018 8F92      		push r8
  49 001a 9F92      		push r9
  50 001c AF92      		push r10
  51 001e BF92      		push r11
  52 0020 CF92      		push r12
  53 0022 DF92      		push r13
  54 0024 EF92      		push r14
  55 0026 FF92      		push r15
  56 0028 0F93      		push r16
  57 002a 1F93      		push r17
  58 002c CF93      		push r28
  59 002e DF93      		push r29
  60               	/* prologue: function */
  61               	/* frame size = 0 */
  62               	.LM7:
  63 0030 8CEF      		ldi r24,lo8(-4)
  64 0032 8ABB      		out 58-32,r24
  65               	.LM8:
  66 0034 87B3      		in r24,55-32
  67 0036 8161      		ori r24,lo8(17)
  68 0038 87BB      		out 55-32,r24
  69               	.LM9:
  70 003a 8FEF      		ldi r24,lo8(-1)
  71 003c 84BB      		out 52-32,r24
  72               	.LM10:
  73 003e 80EE      		ldi r24,lo8(-32)
  74 0040 81BB      		out 49-32,r24
  75               	.LM11:
  76 0042 5998      		cbi 43-32,1
  77               	.LM12:
  78 0044 80B5      		in r24,64-32
  79 0046 8F7B      		andi r24,lo8(-65)
  80 0048 80BD      		out 64-32,r24
  81               	.LM13:
  82 004a 86EC      		ldi r24,lo8(-58)
  83 004c 86B9      		out 38-32,r24
  84 004e 6624      		clr r6
  85 0050 7724      		clr r7
  86               	.LVL0:
  87 0052 48EC      		ldi r20,lo8(200)
  88 0054 842E      		mov r8,r20
  89 0056 912C      		mov r9,__zero_reg__
  90               	.LVL1:
  91 0058 C1E0      		ldi r28,lo8(1)
  92 005a D0E0      		ldi r29,hi8(1)
  93               	.LVL2:
  94               	.LM14:
  95 005c 34EB      		ldi r19,lo8(180)
  96 005e 232E      		mov r2,r19
  97 0060 312C      		mov r3,__zero_reg__
  98               	.LM15:
  99 0062 28EC      		ldi r18,lo8(200)
 100 0064 422E      		mov r4,r18
 101 0066 512C      		mov r5,__zero_reg__
 102               	.LVL3:
 103               	.L78:
 104               	.LM16:
 105 0068 B39B      		sbis 54-32,3
 106 006a 00C0      		rjmp .L6
 107               	.LM17:
 108 006c 959A      		sbi 50-32,5
 109               	.LM18:
 110 006e 9698      		cbi 50-32,6
 111               	.LM19:
 112 0070 9798      		cbi 50-32,7
 113 0072 E1E0      		ldi r30,lo8(1)
 114 0074 F0E0      		ldi r31,hi8(1)
 115               	.LVL4:
 116 0076 0AE0      		ldi r16,lo8(10)
 117 0078 10E0      		ldi r17,hi8(10)
 118               	.LVL5:
 119 007a 00C0      		rjmp .L72
 120               	.LVL6:
 121               	.L6:
 122               	.LM20:
 123 007c 969A      		sbi 50-32,6
 124               	.LM21:
 125 007e 9598      		cbi 50-32,5
 126               	.LM22:
 127 0080 9798      		cbi 50-32,7
 128 0082 E0E0      		ldi r30,lo8(0)
 129 0084 F0E0      		ldi r31,hi8(0)
 130               	.LVL7:
 131 0086 04E6      		ldi r16,lo8(100)
 132 0088 10E0      		ldi r17,hi8(100)
 133               	.LVL8:
 134               	.L72:
 135               	.LM23:
 136 008a 5D9B      		sbis 43-32,5
 137 008c 00C0      		rjmp .L72
 138               	.LM24:
 139 008e 369A      		sbi 38-32,6
 140               	.LM25:
 141 0090 20EE      		ldi r18,lo8(-32)
 142 0092 27B9      		out 39-32,r18
 143               	.L8:
 144               	.LBB16:
 145               	.LBB17:
 146               	.LM26:
 147 0094 349B      		sbis 38-32,4
 148 0096 00C0      		rjmp .L8
 149               	.LM27:
 150 0098 349A      		sbi 38-32,4
 151               	.LM28:
 152 009a 85B1      		in r24,37-32
 153               	.LVL9:
 154 009c 90E0      		ldi r25,lo8(0)
 155               	.LVL10:
 156               	.LBE17:
 157               	.LBE16:
 158               	.LM29:
 159 009e 8055      		subi r24,lo8(-(-80))
 160 00a0 9040      		sbci r25,hi8(-(-80))
 161               	.LVL11:
 162 00a2 9C01      		movw r18,r24
 163 00a4 229D      		mul r18,r2
 164 00a6 C001      		movw r24,r0
 165 00a8 239D      		mul r18,r3
 166 00aa 900D      		add r25,r0
 167 00ac 329D      		mul r19,r2
 168 00ae 900D      		add r25,r0
 169 00b0 1124      		clr r1
 170               	.LVL12:
 171 00b2 61E9      		ldi r22,lo8(145)
 172 00b4 70E0      		ldi r23,hi8(145)
 173               	.LVL13:
 174 00b6 0E94 0000 		call __divmodhi4
 175 00ba AB01      		movw r20,r22
 176               	.LM30:
 177 00bc 369A      		sbi 38-32,6
 178               	.LM31:
 179 00be 31EE      		ldi r19,lo8(-31)
 180 00c0 37B9      		out 39-32,r19
 181               	.L9:
 182               	.LBB18:
 183               	.LBB19:
 184               	.LM32:
 185 00c2 349B      		sbis 38-32,4
 186 00c4 00C0      		rjmp .L9
 187               	.LM33:
 188 00c6 349A      		sbi 38-32,4
 189               	.LM34:
 190 00c8 85B1      		in r24,37-32
 191               	.LBE19:
 192               	.LBE18:
 193               	.LM35:
 194 00ca 90E0      		ldi r25,lo8(0)
 195               	.LVL14:
 196 00cc 8C38      		cpi r24,140
 197 00ce 9105      		cpc r25,__zero_reg__
 198 00d0 04F4      		brge .L10
 199 00d2 9A01      		movw r18,r20
 200               	.LVL15:
 201 00d4 00C0      		rjmp .L11
 202               	.LVL16:
 203               	.L10:
 204               	.LM36:
 205 00d6 2227      		clr r18
 206 00d8 3327      		clr r19
 207 00da 241B      		sub r18,r20
 208 00dc 350B      		sbc r19,r21
 209               	.LVL17:
 210               	.L11:
 211               	.LM37:
 212 00de A901      		movw r20,r18
 213               	.LVL18:
 214 00e0 4E51      		subi r20,lo8(-(-30))
 215 00e2 5040      		sbci r21,hi8(-(-30))
 216               	.LVL19:
 217               	.LM38:
 218 00e4 EF2B      		or r30,r31
 219 00e6 01F0      		breq .+2
 220 00e8 00C0      		rjmp .L12
 221               	.LM39:
 222 00ea C901      		movw r24,r18
 223 00ec 8C96      		adiw r24,44
 224 00ee 8539      		cpi r24,149
 225 00f0 9105      		cpc r25,__zero_reg__
 226 00f2 00F4      		brsh .L13
 227               	.LVL20:
 228               	.LM40:
 229 00f4 88EC      		ldi r24,lo8(200)
 230 00f6 8816      		cp r8,r24
 231 00f8 9104      		cpc r9,__zero_reg__
 232 00fa 04F0      		brlt .L14
 233 00fc 98EC      		ldi r25,lo8(200)
 234 00fe 892E      		mov r8,r25
 235 0100 912C      		mov r9,__zero_reg__
 236 0102 00C0      		rjmp .L15
 237               	.L14:
 238               	.LM41:
 239 0104 0894      		sec
 240 0106 811C      		adc r8,__zero_reg__
 241 0108 911C      		adc r9,__zero_reg__
 242               	.LM42:
 243 010a 2051      		subi r18,lo8(-(-16))
 244 010c 3040      		sbci r19,hi8(-(-16))
 245 010e 2D31      		cpi r18,29
 246 0110 3105      		cpc r19,__zero_reg__
 247 0112 00F4      		brsh .L15
 248               	.LM43:
 249 0114 0894      		sec
 250 0116 811C      		adc r8,__zero_reg__
 251 0118 911C      		adc r9,__zero_reg__
 252               	.LVL21:
 253               	.L15:
 254               	.LM44:
 255 011a 1C16      		cp __zero_reg__,r28
 256 011c 1D06      		cpc __zero_reg__,r29
 257 011e 04F4      		brge .+2
 258 0120 00C0      		rjmp .L17
 259 0122 00C0      		rjmp .L84
 260               	.L13:
 261               	.LM45:
 262 0124 1C16      		cp __zero_reg__,r28
 263 0126 1D06      		cpc __zero_reg__,r29
 264 0128 04F0      		brlt .+2
 265 012a 00C0      		rjmp .L18
 266               	.L67:
 267               	.LM46:
 268 012c CE01      		movw r24,r28
 269 012e 8370      		andi r24,lo8(3)
 270 0130 9070      		andi r25,hi8(3)
 271 0132 8130      		cpi r24,1
 272 0134 9105      		cpc r25,__zero_reg__
 273 0136 01F4      		brne .L19
 274               	.LM47:
 275 0138 A89A      		sbi 53-32,0
 276               	.LM48:
 277 013a A998      		cbi 53-32,1
 278 013c 00C0      		rjmp .L82
 279               	.L19:
 280               	.LM49:
 281 013e 8230      		cpi r24,2
 282 0140 9105      		cpc r25,__zero_reg__
 283 0142 01F4      		brne .L21
 284               	.LM50:
 285 0144 A898      		cbi 53-32,0
 286               	.LM51:
 287 0146 A99A      		sbi 53-32,1
 288               	.L82:
 289               	.LM52:
 290 0148 AA98      		cbi 53-32,2
 291 014a 00C0      		rjmp .L79
 292               	.L21:
 293               	.LM53:
 294 014c 0397      		sbiw r24,3
 295 014e 01F4      		brne .L20
 296               	.LM54:
 297 0150 A898      		cbi 53-32,0
 298               	.LM55:
 299 0152 A998      		cbi 53-32,1
 300               	.LM56:
 301 0154 AA9A      		sbi 53-32,2
 302               	.L79:
 303               	.LM57:
 304 0156 DF98      		cbi 59-32,7
 305               	.L20:
 306               	.LM58:
 307 0158 CE01      		movw r24,r28
 308 015a 8370      		andi r24,lo8(3)
 309 015c 9070      		andi r25,hi8(3)
 310 015e 892B      		or r24,r25
 311 0160 01F4      		brne .L22
 312               	.LM59:
 313 0162 A898      		cbi 53-32,0
 314               	.LM60:
 315 0164 A998      		cbi 53-32,1
 316               	.LM61:
 317 0166 AA98      		cbi 53-32,2
 318               	.LM62:
 319 0168 DF9A      		sbi 59-32,7
 320               	.L22:
 321               	.LM63:
 322 016a 2196      		adiw r28,1
 323               	.LM64:
 324 016c 28E2      		ldi r18,lo8(40)
 325 016e 8216      		cp r8,r18
 326 0170 9104      		cpc r9,__zero_reg__
 327               	.LVL22:
 328 0172 04F0      		brlt .L18
 329               	.LM65:
 330 0174 DB9A      		sbi 59-32,3
 331               	.LM66:
 332 0176 C09A      		sbi 56-32,0
 333               	.LM67:
 334 0178 AC9A      		sbi 53-32,4
 335               	.LM68:
 336 017a AD9A      		sbi 53-32,5
 337               	.LM69:
 338 017c AE9A      		sbi 53-32,6
 339               	.LM70:
 340 017e AF9A      		sbi 53-32,7
 341               	.LM71:
 342 0180 DE9A      		sbi 59-32,6
 343               	.LM72:
 344 0182 DC9A      		sbi 59-32,4
 345               	.LM73:
 346 0184 C498      		cbi 56-32,4
 347               	.LM74:
 348 0186 DA98      		cbi 59-32,2
 349               	.LM75:
 350 0188 30E5      		ldi r19,lo8(80)
 351 018a 8316      		cp r8,r19
 352 018c 9104      		cpc r9,__zero_reg__
 353 018e 04F0      		brlt .L18
 354               	.LM76:
 355 0190 DF9A      		sbi 59-32,7
 356               	.LM77:
 357 0192 DD9A      		sbi 59-32,5
 358               	.LM78:
 359 0194 DC98      		cbi 59-32,4
 360               	.LM79:
 361 0196 DE98      		cbi 59-32,6
 362               	.LM80:
 363 0198 88E7      		ldi r24,lo8(120)
 364 019a 8816      		cp r8,r24
 365 019c 9104      		cpc r9,__zero_reg__
 366 019e 04F0      		brlt .L18
 367               	.LM81:
 368 01a0 AA9A      		sbi 53-32,2
 369               	.LM82:
 370 01a2 AB9A      		sbi 53-32,3
 371               	.LM83:
 372 01a4 AF98      		cbi 53-32,7
 373               	.LM84:
 374 01a6 AE98      		cbi 53-32,6
 375               	.LM85:
 376 01a8 20EA      		ldi r18,lo8(160)
 377 01aa 8216      		cp r8,r18
 378 01ac 9104      		cpc r9,__zero_reg__
 379 01ae 04F0      		brlt .L18
 380               	.LM86:
 381 01b0 A99A      		sbi 53-32,1
 382               	.LM87:
 383 01b2 AD98      		cbi 53-32,5
 384               	.LM88:
 385 01b4 38EC      		ldi r19,lo8(200)
 386 01b6 8316      		cp r8,r19
 387 01b8 9104      		cpc r9,__zero_reg__
 388 01ba 01F4      		brne .L18
 389               	.LM89:
 390 01bc A89A      		sbi 53-32,0
 391               	.LM90:
 392 01be AC98      		cbi 53-32,4
 393               	.LVL23:
 394               	.L18:
 395               	.LM91:
 396 01c0 CA01      		movw r24,r20
 397 01c2 8759      		subi r24,lo8(-(105))
 398 01c4 9F4F      		sbci r25,hi8(-(105))
 399 01c6 833D      		cpi r24,211
 400 01c8 9105      		cpc r25,__zero_reg__
 401 01ca 00F0      		brlo .L23
 402               	.LM92:
 403 01cc 88EC      		ldi r24,lo8(200)
 404 01ce 6816      		cp r6,r24
 405 01d0 7104      		cpc r7,__zero_reg__
 406 01d2 04F0      		brlt .L24
 407 01d4 88EC      		ldi r24,lo8(200)
 408 01d6 682E      		mov r6,r24
 409 01d8 712C      		mov r7,__zero_reg__
 410 01da 00C0      		rjmp .L25
 411               	.L24:
 412               	.LM93:
 413 01dc 0894      		sec
 414 01de 611C      		adc r6,__zero_reg__
 415 01e0 711C      		adc r7,__zero_reg__
 416               	.LM94:
 417 01e2 CA01      		movw r24,r20
 418 01e4 8A56      		subi r24,lo8(-(150))
 419 01e6 9F4F      		sbci r25,hi8(-(150))
 420 01e8 8D52      		subi r24,lo8(301)
 421 01ea 9140      		sbci r25,hi8(301)
 422 01ec 00F0      		brlo .L25
 423               	.LM95:
 424 01ee 0894      		sec
 425 01f0 611C      		adc r6,__zero_reg__
 426 01f2 711C      		adc r7,__zero_reg__
 427               	.LVL24:
 428               	.L25:
 429               	.LM96:
 430 01f4 D7FF      		sbrs r29,7
 431 01f6 00C0      		rjmp .L26
 432 01f8 00C0      		rjmp .L27
 433               	.L23:
 434               	.LM97:
 435 01fa D7FF      		sbrs r29,7
 436 01fc 00C0      		rjmp .L28
 437               	.L68:
 438               	.LM98:
 439 01fe 2227      		clr r18
 440 0200 3327      		clr r19
 441 0202 2C1B      		sub r18,r28
 442 0204 3D0B      		sbc r19,r29
 443 0206 C901      		movw r24,r18
 444 0208 8370      		andi r24,lo8(3)
 445 020a 9070      		andi r25,hi8(3)
 446 020c 8130      		cpi r24,1
 447 020e 9105      		cpc r25,__zero_reg__
 448 0210 01F4      		brne .L29
 449               	.LM99:
 450 0212 AC9A      		sbi 53-32,4
 451               	.LM100:
 452 0214 AD98      		cbi 53-32,5
 453 0216 00C0      		rjmp .L83
 454               	.L29:
 455               	.LM101:
 456 0218 8230      		cpi r24,2
 457 021a 9105      		cpc r25,__zero_reg__
 458 021c 01F4      		brne .L31
 459               	.LM102:
 460 021e AC98      		cbi 53-32,4
 461               	.LM103:
 462 0220 AD9A      		sbi 53-32,5
 463               	.L83:
 464               	.LM104:
 465 0222 AE98      		cbi 53-32,6
 466 0224 00C0      		rjmp .L80
 467               	.L31:
 468               	.LM105:
 469 0226 0397      		sbiw r24,3
 470 0228 01F4      		brne .L30
 471               	.LM106:
 472 022a AC98      		cbi 53-32,4
 473               	.LM107:
 474 022c AD98      		cbi 53-32,5
 475               	.LM108:
 476 022e AE9A      		sbi 53-32,6
 477               	.L80:
 478               	.LM109:
 479 0230 DE98      		cbi 59-32,6
 480               	.L30:
 481               	.LM110:
 482 0232 2370      		andi r18,lo8(3)
 483 0234 3070      		andi r19,hi8(3)
 484 0236 232B      		or r18,r19
 485 0238 01F4      		brne .L32
 486               	.LM111:
 487 023a AC98      		cbi 53-32,4
 488               	.LM112:
 489 023c AD98      		cbi 53-32,5
 490               	.LM113:
 491 023e AE98      		cbi 53-32,6
 492               	.LM114:
 493 0240 DE9A      		sbi 59-32,6
 494               	.L32:
 495               	.LM115:
 496 0242 2197      		sbiw r28,1
 497               	.LM116:
 498 0244 38E2      		ldi r19,lo8(40)
 499 0246 6316      		cp r6,r19
 500 0248 7104      		cpc r7,__zero_reg__
 501 024a 04F0      		brlt .L28
 502               	.LM117:
 503 024c DA9A      		sbi 59-32,2
 504               	.LM118:
 505 024e C49A      		sbi 56-32,4
 506               	.LM119:
 507 0250 A89A      		sbi 53-32,0
 508               	.LM120:
 509 0252 A99A      		sbi 53-32,1
 510               	.LM121:
 511 0254 AA9A      		sbi 53-32,2
 512               	.LM122:
 513 0256 AB9A      		sbi 53-32,3
 514               	.LM123:
 515 0258 DF9A      		sbi 59-32,7
 516               	.LM124:
 517 025a DD9A      		sbi 59-32,5
 518               	.LM125:
 519 025c C098      		cbi 56-32,0
 520               	.LM126:
 521 025e DB98      		cbi 59-32,3
 522               	.LM127:
 523 0260 80E5      		ldi r24,lo8(80)
 524 0262 6816      		cp r6,r24
 525 0264 7104      		cpc r7,__zero_reg__
 526 0266 04F0      		brlt .L28
 527               	.LM128:
 528 0268 DE9A      		sbi 59-32,6
 529               	.LM129:
 530 026a DC9A      		sbi 59-32,4
 531               	.LM130:
 532 026c DD98      		cbi 59-32,5
 533               	.LM131:
 534 026e DF98      		cbi 59-32,7
 535               	.LM132:
 536 0270 28E7      		ldi r18,lo8(120)
 537 0272 6216      		cp r6,r18
 538 0274 7104      		cpc r7,__zero_reg__
 539 0276 04F0      		brlt .L28
 540               	.LM133:
 541 0278 AE9A      		sbi 53-32,6
 542               	.LM134:
 543 027a AF9A      		sbi 53-32,7
 544               	.LM135:
 545 027c AB98      		cbi 53-32,3
 546               	.LM136:
 547 027e AA98      		cbi 53-32,2
 548               	.LM137:
 549 0280 30EA      		ldi r19,lo8(160)
 550 0282 6316      		cp r6,r19
 551 0284 7104      		cpc r7,__zero_reg__
 552 0286 04F0      		brlt .L28
 553               	.LM138:
 554 0288 AD9A      		sbi 53-32,5
 555               	.LM139:
 556 028a A998      		cbi 53-32,1
 557               	.LM140:
 558 028c 88EC      		ldi r24,lo8(200)
 559 028e 6816      		cp r6,r24
 560 0290 7104      		cpc r7,__zero_reg__
 561 0292 01F4      		brne .L28
 562               	.LM141:
 563 0294 AC9A      		sbi 53-32,4
 564               	.LM142:
 565 0296 A898      		cbi 53-32,0
 566               	.LVL25:
 567               	.L28:
 568               	.LM143:
 569 0298 28EC      		ldi r18,lo8(200)
 570 029a 8216      		cp r8,r18
 571 029c 9104      		cpc r9,__zero_reg__
 572 029e 01F4      		brne .L33
 573               	.LM144:
 574 02a0 85B3      		in r24,53-32
 575 02a2 15BA      		out 53-32,__zero_reg__
 576               	.LM145:
 577 02a4 85B3      		in r24,53-32
 578 02a6 8F60      		ori r24,lo8(15)
 579 02a8 85BB      		out 53-32,r24
 580               	.LM146:
 581 02aa 8BB3      		in r24,59-32
 582 02ac 8370      		andi r24,lo8(3)
 583 02ae 8BBB      		out 59-32,r24
 584               	.LM147:
 585 02b0 8BB3      		in r24,59-32
 586 02b2 886A      		ori r24,lo8(-88)
 587 02b4 8BBB      		out 59-32,r24
 588               	.LM148:
 589 02b6 88B3      		in r24,56-32
 590 02b8 8E7E      		andi r24,lo8(-18)
 591 02ba 88BB      		out 56-32,r24
 592               	.LM149:
 593 02bc C09A      		sbi 56-32,0
 594               	.L33:
 595               	.LM150:
 596 02be 38EC      		ldi r19,lo8(200)
 597 02c0 6316      		cp r6,r19
 598 02c2 7104      		cpc r7,__zero_reg__
 599 02c4 01F4      		brne .L34
 600               	.LM151:
 601 02c6 85B3      		in r24,53-32
 602 02c8 15BA      		out 53-32,__zero_reg__
 603               	.LM152:
 604 02ca 85B3      		in r24,53-32
 605 02cc 806F      		ori r24,lo8(-16)
 606 02ce 85BB      		out 53-32,r24
 607               	.LM153:
 608 02d0 8BB3      		in r24,59-32
 609 02d2 8370      		andi r24,lo8(3)
 610 02d4 8BBB      		out 59-32,r24
 611               	.LM154:
 612 02d6 8BB3      		in r24,59-32
 613 02d8 8465      		ori r24,lo8(84)
 614 02da 8BBB      		out 59-32,r24
 615               	.LM155:
 616 02dc 88B3      		in r24,56-32
 617 02de 8E7E      		andi r24,lo8(-18)
 618 02e0 88BB      		out 56-32,r24
 619               	.LM156:
 620 02e2 DC9A      		sbi 59-32,4
 621               	.L34:
 622               	.LM157:
 623 02e4 CA01      		movw r24,r20
 624 02e6 8859      		subi r24,lo8(-(104))
 625 02e8 9F4F      		sbci r25,hi8(-(104))
 626 02ea 4D97      		sbiw r24,29
 627 02ec 00F0      		brlo .L35
 628 02ee 4C54      		subi r20,lo8(-(-76))
 629 02f0 5040      		sbci r21,hi8(-(-76))
 630 02f2 4D31      		cpi r20,29
 631 02f4 5105      		cpc r21,__zero_reg__
 632 02f6 00F0      		brlo .+2
 633 02f8 00C0      		rjmp .L36
 634               	.L35:
 635               	.LM158:
 636 02fa 1C16      		cp __zero_reg__,r28
 637 02fc 1D06      		cpc __zero_reg__,r29
 638 02fe 04F4      		brge .L37
 639 0300 88EC      		ldi r24,lo8(200)
 640 0302 8816      		cp r8,r24
 641 0304 9104      		cpc r9,__zero_reg__
 642 0306 04F0      		brlt .+2
 643 0308 00C0      		rjmp .L81
 644               	.LM159:
 645 030a 85B3      		in r24,53-32
 646 030c 15BA      		out 53-32,__zero_reg__
 647               	.LM160:
 648 030e 85B3      		in r24,53-32
 649 0310 806F      		ori r24,lo8(-16)
 650 0312 85BB      		out 53-32,r24
 651               	.LM161:
 652 0314 8BB3      		in r24,59-32
 653 0316 8370      		andi r24,lo8(3)
 654 0318 8BBB      		out 59-32,r24
 655               	.LM162:
 656 031a 8BB3      		in r24,59-32
 657 031c 8465      		ori r24,lo8(84)
 658 031e 8BBB      		out 59-32,r24
 659               	.LM163:
 660 0320 88B3      		in r24,56-32
 661 0322 8E7E      		andi r24,lo8(-18)
 662 0324 88BB      		out 56-32,r24
 663               	.LM164:
 664 0326 DC9A      		sbi 59-32,4
 665               	.LM165:
 666 0328 29E2      		ldi r18,lo8(41)
 667 032a 8216      		cp r8,r18
 668 032c 9104      		cpc r9,__zero_reg__
 669 032e 04F4      		brge .+2
 670 0330 00C0      		rjmp .L81
 671               	.LM166:
 672 0332 AC98      		cbi 53-32,4
 673               	.LM167:
 674 0334 C09A      		sbi 56-32,0
 675               	.LM168:
 676 0336 DB9A      		sbi 59-32,3
 677               	.LM169:
 678 0338 31E5      		ldi r19,lo8(81)
 679 033a 8316      		cp r8,r19
 680 033c 9104      		cpc r9,__zero_reg__
 681 033e 04F4      		brge .+2
 682 0340 00C0      		rjmp .L81
 683               	.LM170:
 684 0342 AD98      		cbi 53-32,5
 685               	.LM171:
 686 0344 DD9A      		sbi 59-32,5
 687               	.LM172:
 688 0346 DF9A      		sbi 59-32,7
 689               	.LM173:
 690 0348 89E7      		ldi r24,lo8(121)
 691 034a 8816      		cp r8,r24
 692 034c 9104      		cpc r9,__zero_reg__
 693 034e 04F0      		brlt .L81
 694               	.LM174:
 695 0350 AE98      		cbi 53-32,6
 696               	.LM175:
 697 0352 AF98      		cbi 53-32,7
 698               	.LM176:
 699 0354 AB9A      		sbi 53-32,3
 700               	.LM177:
 701 0356 AA9A      		sbi 53-32,2
 702               	.LM178:
 703 0358 21EA      		ldi r18,lo8(161)
 704 035a 8216      		cp r8,r18
 705 035c 9104      		cpc r9,__zero_reg__
 706 035e 04F0      		brlt .L81
 707               	.LM179:
 708 0360 AD98      		cbi 53-32,5
 709               	.LM180:
 710 0362 A99A      		sbi 53-32,1
 711 0364 00C0      		rjmp .L81
 712               	.L37:
 713               	.LM181:
 714 0366 2097      		sbiw r28,0
 715 0368 01F4      		brne .+2
 716 036a 00C0      		rjmp .L36
 717 036c 38EC      		ldi r19,lo8(200)
 718 036e 6316      		cp r6,r19
 719 0370 7104      		cpc r7,__zero_reg__
 720 0372 04F4      		brge .L81
 721               	.LM182:
 722 0374 85B3      		in r24,53-32
 723 0376 15BA      		out 53-32,__zero_reg__
 724               	.LM183:
 725 0378 85B3      		in r24,53-32
 726 037a 8F60      		ori r24,lo8(15)
 727 037c 85BB      		out 53-32,r24
 728               	.LM184:
 729 037e 8BB3      		in r24,59-32
 730 0380 8370      		andi r24,lo8(3)
 731 0382 8BBB      		out 59-32,r24
 732               	.LM185:
 733 0384 8BB3      		in r24,59-32
 734 0386 886A      		ori r24,lo8(-88)
 735 0388 8BBB      		out 59-32,r24
 736               	.LM186:
 737 038a 88B3      		in r24,56-32
 738 038c 8E7E      		andi r24,lo8(-18)
 739 038e 88BB      		out 56-32,r24
 740               	.LM187:
 741 0390 C09A      		sbi 56-32,0
 742               	.LM188:
 743 0392 89E2      		ldi r24,lo8(41)
 744 0394 6816      		cp r6,r24
 745 0396 7104      		cpc r7,__zero_reg__
 746 0398 04F0      		brlt .L81
 747               	.LM189:
 748 039a A898      		cbi 53-32,0
 749               	.LM190:
 750 039c C49A      		sbi 56-32,4
 751               	.LM191:
 752 039e DA9A      		sbi 59-32,2
 753               	.LM192:
 754 03a0 21E5      		ldi r18,lo8(81)
 755 03a2 6216      		cp r6,r18
 756 03a4 7104      		cpc r7,__zero_reg__
 757 03a6 04F0      		brlt .L81
 758               	.LM193:
 759 03a8 A998      		cbi 53-32,1
 760               	.LM194:
 761 03aa DC9A      		sbi 59-32,4
 762               	.LM195:
 763 03ac DE9A      		sbi 59-32,6
 764               	.LM196:
 765 03ae 39E7      		ldi r19,lo8(121)
 766 03b0 6316      		cp r6,r19
 767 03b2 7104      		cpc r7,__zero_reg__
 768 03b4 04F0      		brlt .L81
 769               	.LM197:
 770 03b6 AA98      		cbi 53-32,2
 771               	.LM198:
 772 03b8 AB98      		cbi 53-32,3
 773               	.LM199:
 774 03ba AF9A      		sbi 53-32,7
 775               	.LM200:
 776 03bc AE9A      		sbi 53-32,6
 777               	.LM201:
 778 03be 81EA      		ldi r24,lo8(161)
 779 03c0 6816      		cp r6,r24
 780 03c2 7104      		cpc r7,__zero_reg__
 781 03c4 04F0      		brlt .L81
 782               	.LM202:
 783 03c6 A998      		cbi 53-32,1
 784               	.LM203:
 785 03c8 AD9A      		sbi 53-32,5
 786               	.L81:
 787 03ca C0E0      		ldi r28,lo8(0)
 788 03cc D0E0      		ldi r29,hi8(0)
 789 03ce 00C0      		rjmp .L36
 790               	.L12:
 791               	.LM204:
 792 03d0 C901      		movw r24,r18
 793 03d2 865B      		subi r24,lo8(-(74))
 794 03d4 9F4F      		sbci r25,hi8(-(74))
 795 03d6 4D97      		sbiw r24,29
 796 03d8 00F0      		brlo .L39
 797               	.LVL26:
 798 03da 2A56      		subi r18,lo8(-(-106))
 799 03dc 3040      		sbci r19,hi8(-(-106))
 800 03de 2D31      		cpi r18,29
 801 03e0 3105      		cpc r19,__zero_reg__
 802 03e2 00F4      		brsh .L40
 803               	.LVL27:
 804               	.L39:
 805               	.LM205:
 806 03e4 85B3      		in r24,53-32
 807 03e6 15BA      		out 53-32,__zero_reg__
 808               	.LM206:
 809 03e8 8BB3      		in r24,59-32
 810 03ea 8370      		andi r24,lo8(3)
 811 03ec 8BBB      		out 59-32,r24
 812               	.LM207:
 813 03ee 88B3      		in r24,56-32
 814 03f0 8E7E      		andi r24,lo8(-18)
 815 03f2 88BB      		out 56-32,r24
 816               	.L40:
 817               	.LM208:
 818 03f4 CA01      		movw r24,r20
 819 03f6 865B      		subi r24,lo8(-(74))
 820 03f8 9F4F      		sbci r25,hi8(-(74))
 821 03fa 0E97      		sbiw r24,14
 822 03fc 00F0      		brlo .L41
 823               	.LVL28:
 824 03fe CA01      		movw r24,r20
 825 0400 CD97      		sbiw r24,61
 826 0402 0E97      		sbiw r24,14
 827 0404 00F4      		brsh .L42
 828               	.L41:
 829               	.LM209:
 830 0406 85B3      		in r24,53-32
 831 0408 15BA      		out 53-32,__zero_reg__
 832               	.LM210:
 833 040a 8BB3      		in r24,59-32
 834 040c 8370      		andi r24,lo8(3)
 835 040e 8BBB      		out 59-32,r24
 836               	.LM211:
 837 0410 88B3      		in r24,56-32
 838 0412 8E7E      		andi r24,lo8(-18)
 839 0414 88BB      		out 56-32,r24
 840               	.LM212:
 841 0416 A89A      		sbi 53-32,0
 842               	.L42:
 843               	.LM213:
 844 0418 CA01      		movw r24,r20
 845 041a CB96      		adiw r24,59
 846 041c 0E97      		sbiw r24,14
 847 041e 00F0      		brlo .L43
 848 0420 CA01      		movw r24,r20
 849 0422 8E97      		sbiw r24,46
 850 0424 0E97      		sbiw r24,14
 851 0426 00F4      		brsh .L44
 852               	.L43:
 853               	.LM214:
 854 0428 85B3      		in r24,53-32
 855 042a 15BA      		out 53-32,__zero_reg__
 856               	.LM215:
 857 042c 8BB3      		in r24,59-32
 858 042e 8370      		andi r24,lo8(3)
 859 0430 8BBB      		out 59-32,r24
 860               	.LM216:
 861 0432 88B3      		in r24,56-32
 862 0434 8E7E      		andi r24,lo8(-18)
 863 0436 88BB      		out 56-32,r24
 864               	.LM217:
 865 0438 A89A      		sbi 53-32,0
 866               	.LM218:
 867 043a A99A      		sbi 53-32,1
 868               	.L44:
 869               	.LM219:
 870 043c CA01      		movw r24,r20
 871 043e 8C96      		adiw r24,44
 872 0440 0E97      		sbiw r24,14
 873 0442 00F0      		brlo .L45
 874 0444 CA01      		movw r24,r20
 875 0446 4F97      		sbiw r24,31
 876 0448 0E97      		sbiw r24,14
 877 044a 00F4      		brsh .L46
 878               	.L45:
 879               	.LM220:
 880 044c 85B3      		in r24,53-32
 881 044e 15BA      		out 53-32,__zero_reg__
 882               	.LM221:
 883 0450 8BB3      		in r24,59-32
 884 0452 8370      		andi r24,lo8(3)
 885 0454 8BBB      		out 59-32,r24
 886               	.LM222:
 887 0456 88B3      		in r24,56-32
 888 0458 8E7E      		andi r24,lo8(-18)
 889 045a 88BB      		out 56-32,r24
 890               	.LM223:
 891 045c A89A      		sbi 53-32,0
 892               	.LM224:
 893 045e A99A      		sbi 53-32,1
 894               	.LM225:
 895 0460 AA9A      		sbi 53-32,2
 896               	.L46:
 897               	.LM226:
 898 0462 CA01      		movw r24,r20
 899 0464 4D96      		adiw r24,29
 900 0466 0E97      		sbiw r24,14
 901 0468 00F0      		brlo .L47
 902 046a CA01      		movw r24,r20
 903 046c 4097      		sbiw r24,16
 904 046e 0E97      		sbiw r24,14
 905 0470 00F4      		brsh .L48
 906               	.L47:
 907               	.LM227:
 908 0472 85B3      		in r24,53-32
 909 0474 15BA      		out 53-32,__zero_reg__
 910               	.LM228:
 911 0476 8BB3      		in r24,59-32
 912 0478 8370      		andi r24,lo8(3)
 913 047a 8BBB      		out 59-32,r24
 914               	.LM229:
 915 047c 88B3      		in r24,56-32
 916 047e 8E7E      		andi r24,lo8(-18)
 917 0480 88BB      		out 56-32,r24
 918               	.LM230:
 919 0482 A89A      		sbi 53-32,0
 920               	.LM231:
 921 0484 A99A      		sbi 53-32,1
 922               	.LM232:
 923 0486 AA9A      		sbi 53-32,2
 924               	.LM233:
 925 0488 DF9A      		sbi 59-32,7
 926               	.L48:
 927               	.LM234:
 928 048a CA01      		movw r24,r20
 929 048c 0E96      		adiw r24,14
 930 048e 4D97      		sbiw r24,29
 931 0490 00F4      		brsh .L49
 932               	.LM235:
 933 0492 85B3      		in r24,53-32
 934 0494 15BA      		out 53-32,__zero_reg__
 935               	.LM236:
 936 0496 8BB3      		in r24,59-32
 937 0498 8370      		andi r24,lo8(3)
 938 049a 8BBB      		out 59-32,r24
 939               	.LM237:
 940 049c 88B3      		in r24,56-32
 941 049e 8E7E      		andi r24,lo8(-18)
 942 04a0 88BB      		out 56-32,r24
 943               	.LM238:
 944 04a2 A89A      		sbi 53-32,0
 945               	.LM239:
 946 04a4 A99A      		sbi 53-32,1
 947               	.LM240:
 948 04a6 AA9A      		sbi 53-32,2
 949               	.LM241:
 950 04a8 DF9A      		sbi 59-32,7
 951               	.LM242:
 952 04aa DB9A      		sbi 59-32,3
 953               	.L49:
 954               	.LM243:
 955 04ac CA01      		movw r24,r20
 956 04ae 8A56      		subi r24,lo8(-(-106))
 957 04b0 9040      		sbci r25,hi8(-(-106))
 958 04b2 0E97      		sbiw r24,14
 959 04b4 00F0      		brlo .L50
 960 04b6 CA01      		movw r24,r20
 961 04b8 8958      		subi r24,lo8(-(119))
 962 04ba 9F4F      		sbci r25,hi8(-(119))
 963 04bc 0E97      		sbiw r24,14
 964 04be 00F4      		brsh .L51
 965               	.L50:
 966               	.LM244:
 967 04c0 85B3      		in r24,53-32
 968 04c2 15BA      		out 53-32,__zero_reg__
 969               	.LM245:
 970 04c4 8BB3      		in r24,59-32
 971 04c6 8370      		andi r24,lo8(3)
 972 04c8 8BBB      		out 59-32,r24
 973               	.LM246:
 974 04ca 88B3      		in r24,56-32
 975 04cc 8E7E      		andi r24,lo8(-18)
 976 04ce 88BB      		out 56-32,r24
 977               	.LM247:
 978 04d0 AC9A      		sbi 53-32,4
 979               	.L51:
 980               	.LM248:
 981 04d2 CA01      		movw r24,r20
 982 04d4 8957      		subi r24,lo8(-(-121))
 983 04d6 9040      		sbci r25,hi8(-(-121))
 984 04d8 0E97      		sbiw r24,14
 985 04da 00F0      		brlo .L52
 986 04dc CA01      		movw r24,r20
 987 04de 8A57      		subi r24,lo8(-(134))
 988 04e0 9F4F      		sbci r25,hi8(-(134))
 989 04e2 0E97      		sbiw r24,14
 990 04e4 00F4      		brsh .L53
 991               	.L52:
 992               	.LM249:
 993 04e6 85B3      		in r24,53-32
 994 04e8 15BA      		out 53-32,__zero_reg__
 995               	.LM250:
 996 04ea 8BB3      		in r24,59-32
 997 04ec 8370      		andi r24,lo8(3)
 998 04ee 8BBB      		out 59-32,r24
 999               	.LM251:
 1000 04f0 88B3      		in r24,56-32
 1001 04f2 8E7E      		andi r24,lo8(-18)
 1002 04f4 88BB      		out 56-32,r24
 1003               	.LM252:
 1004 04f6 AC9A      		sbi 53-32,4
 1005               	.LM253:
 1006 04f8 AD9A      		sbi 53-32,5
 1007               	.L53:
 1008               	.LM254:
 1009 04fa CA01      		movw r24,r20
 1010 04fc 8858      		subi r24,lo8(-(-136))
 1011 04fe 9040      		sbci r25,hi8(-(-136))
 1012 0500 0E97      		sbiw r24,14
 1013 0502 00F0      		brlo .L54
 1014 0504 CA01      		movw r24,r20
 1015 0506 8B56      		subi r24,lo8(-(149))
 1016 0508 9F4F      		sbci r25,hi8(-(149))
 1017 050a 0E97      		sbiw r24,14
 1018 050c 00F4      		brsh .L55
 1019               	.L54:
 1020               	.LM255:
 1021 050e 85B3      		in r24,53-32
 1022 0510 15BA      		out 53-32,__zero_reg__
 1023               	.LM256:
 1024 0512 8BB3      		in r24,59-32
 1025 0514 8370      		andi r24,lo8(3)
 1026 0516 8BBB      		out 59-32,r24
 1027               	.LM257:
 1028 0518 88B3      		in r24,56-32
 1029 051a 8E7E      		andi r24,lo8(-18)
 1030 051c 88BB      		out 56-32,r24
 1031               	.LM258:
 1032 051e AC9A      		sbi 53-32,4
 1033               	.LM259:
 1034 0520 AD9A      		sbi 53-32,5
 1035               	.LM260:
 1036 0522 AE9A      		sbi 53-32,6
 1037               	.L55:
 1038               	.LM261:
 1039 0524 CA01      		movw r24,r20
 1040 0526 8759      		subi r24,lo8(-(-151))
 1041 0528 9040      		sbci r25,hi8(-(-151))
 1042 052a 0E97      		sbiw r24,14
 1043 052c 00F0      		brlo .L56
 1044 052e CA01      		movw r24,r20
 1045 0530 8C55      		subi r24,lo8(-(164))
 1046 0532 9F4F      		sbci r25,hi8(-(164))
 1047 0534 0E97      		sbiw r24,14
 1048 0536 00F4      		brsh .L57
 1049               	.L56:
 1050               	.LM262:
 1051 0538 85B3      		in r24,53-32
 1052 053a 15BA      		out 53-32,__zero_reg__
 1053               	.LM263:
 1054 053c 8BB3      		in r24,59-32
 1055 053e 8370      		andi r24,lo8(3)
 1056 0540 8BBB      		out 59-32,r24
 1057               	.LM264:
 1058 0542 88B3      		in r24,56-32
 1059 0544 8E7E      		andi r24,lo8(-18)
 1060 0546 88BB      		out 56-32,r24
 1061               	.LM265:
 1062 0548 AC9A      		sbi 53-32,4
 1063               	.LM266:
 1064 054a AD9A      		sbi 53-32,5
 1065               	.LM267:
 1066 054c AE9A      		sbi 53-32,6
 1067               	.LM268:
 1068 054e DE9A      		sbi 59-32,6
 1069               	.L57:
 1070               	.LM269:
 1071 0550 CA01      		movw r24,r20
 1072 0552 865A      		subi r24,lo8(-(-166))
 1073 0554 9040      		sbci r25,hi8(-(-166))
 1074 0556 0E97      		sbiw r24,14
 1075 0558 00F0      		brlo .L58
 1076 055a 4D54      		subi r20,lo8(-(179))
 1077 055c 5F4F      		sbci r21,hi8(-(179))
 1078 055e 4E30      		cpi r20,14
 1079 0560 5105      		cpc r21,__zero_reg__
 1080 0562 00F4      		brsh .L36
 1081               	.LVL29:
 1082               	.L58:
 1083               	.LM270:
 1084 0564 85B3      		in r24,53-32
 1085 0566 15BA      		out 53-32,__zero_reg__
 1086               	.LM271:
 1087 0568 8BB3      		in r24,59-32
 1088 056a 8370      		andi r24,lo8(3)
 1089 056c 8BBB      		out 59-32,r24
 1090               	.LM272:
 1091 056e 88B3      		in r24,56-32
 1092 0570 8E7E      		andi r24,lo8(-18)
 1093 0572 88BB      		out 56-32,r24
 1094               	.LM273:
 1095 0574 AC9A      		sbi 53-32,4
 1096               	.LM274:
 1097 0576 AD9A      		sbi 53-32,5
 1098               	.LM275:
 1099 0578 AE9A      		sbi 53-32,6
 1100               	.LM276:
 1101 057a DE9A      		sbi 59-32,6
 1102               	.LM277:
 1103 057c DA9A      		sbi 59-32,2
 1104               	.L36:
 1105               	.LM278:
 1106 057e B801      		movw r22,r16
 1107 0580 8827      		clr r24
 1108 0582 77FD      		sbrc r23,7
 1109 0584 8095      		com r24
 1110 0586 982F      		mov r25,r24
 1111               	.LVL30:
 1112 0588 0E94 0000 		call __floatsisf
 1113               	.LVL31:
 1114 058c 5B01      		movw r10,r22
 1115 058e 6C01      		movw r12,r24
 1116               	.LBB20:
 1117               	.LBB21:
 1118               	.LM279:
 1119 0590 20E0      		ldi r18,lo8(0x447a0000)
 1120 0592 30E0      		ldi r19,hi8(0x447a0000)
 1121 0594 4AE7      		ldi r20,hlo8(0x447a0000)
 1122 0596 54E4      		ldi r21,hhi8(0x447a0000)
 1123 0598 0E94 0000 		call __mulsf3
 1124 059c 7B01      		movw r14,r22
 1125 059e 8C01      		movw r16,r24
 1126               	.LM280:
 1127 05a0 20E0      		ldi r18,lo8(0x3f800000)
 1128 05a2 30E0      		ldi r19,hi8(0x3f800000)
 1129 05a4 40E8      		ldi r20,hlo8(0x3f800000)
 1130 05a6 5FE3      		ldi r21,hhi8(0x3f800000)
 1131 05a8 0E94 0000 		call __ltsf2
 1132 05ac 8823      		tst r24
 1133 05ae 04F4      		brge .L76
 1134 05b0 61E0      		ldi r22,lo8(1)
 1135 05b2 70E0      		ldi r23,hi8(1)
 1136               	.LVL32:
 1137 05b4 00C0      		rjmp .L61
 1138               	.LVL33:
 1139               	.L76:
 1140               	.LM281:
 1141 05b6 C801      		movw r24,r16
 1142 05b8 B701      		movw r22,r14
 1143 05ba 20E0      		ldi r18,lo8(0x477fff00)
 1144 05bc 3FEF      		ldi r19,hi8(0x477fff00)
 1145 05be 4FE7      		ldi r20,hlo8(0x477fff00)
 1146 05c0 57E4      		ldi r21,hhi8(0x477fff00)
 1147 05c2 0E94 0000 		call __gtsf2
 1148 05c6 1816      		cp __zero_reg__,r24
 1149 05c8 04F4      		brge .L77
 1150               	.LM282:
 1151 05ca C601      		movw r24,r12
 1152 05cc B501      		movw r22,r10
 1153 05ce 20E0      		ldi r18,lo8(0x41200000)
 1154 05d0 30E0      		ldi r19,hi8(0x41200000)
 1155 05d2 40E2      		ldi r20,hlo8(0x41200000)
 1156 05d4 51E4      		ldi r21,hhi8(0x41200000)
 1157 05d6 0E94 0000 		call __mulsf3
 1158 05da 0E94 0000 		call __fixunssfsi
 1159 05de 00C0      		rjmp .L64
 1160               	.LVL34:
 1161               	.L65:
 1162               	.LBB22:
 1163               	.LBB23:
 1164               	.LM283:
 1165 05e0 84E6      		ldi r24,lo8(100)
 1166 05e2 90E0      		ldi r25,hi8(100)
 1167               	/* #APP */
 1168               	 ;  105 "c:/program files/winavr-20100110/lib/gcc/../../avr/include/util/delay_basic.h" 1
 1169 05e4 0197      		1: sbiw r24,1
 1170 05e6 01F4      		brne 1b
 1171               	 ;  0 "" 2
 1172               	/* #NOAPP */
 1173               	.LBE23:
 1174               	.LBE22:
 1175               	.LM284:
 1176 05e8 6150      		subi r22,lo8(-(-1))
 1177 05ea 7040      		sbci r23,hi8(-(-1))
 1178               	.L64:
 1179               	.LM285:
 1180 05ec 6115      		cp r22,__zero_reg__
 1181 05ee 7105      		cpc r23,__zero_reg__
 1182 05f0 01F4      		brne .L65
 1183 05f2 00C0      		rjmp .L78
 1184               	.LVL35:
 1185               	.L77:
 1186               	.LM286:
 1187 05f4 C801      		movw r24,r16
 1188 05f6 B701      		movw r22,r14
 1189 05f8 0E94 0000 		call __fixunssfsi
 1190               	.LVL36:
 1191               	.L61:
 1192               	.LBB24:
 1193               	.LBB25:
 1194               	.LM287:
 1195 05fc CB01      		movw r24,r22
 1196               	.LVL37:
 1197               	/* #APP */
 1198               	 ;  105 "c:/program files/winavr-20100110/lib/gcc/../../avr/include/util/delay_basic.h" 1
 1199 05fe 0197      		1: sbiw r24,1
 1200 0600 01F4      		brne 1b
 1201               	 ;  0 "" 2
 1202               	/* #NOAPP */
 1203 0602 00C0      		rjmp .L78
 1204               	.LVL38:
 1205               	.L84:
 1206 0604 C1E0      		ldi r28,lo8(1)
 1207 0606 D0E0      		ldi r29,hi8(1)
 1208               	.L17:
 1209               	.LBE25:
 1210               	.LBE24:
 1211               	.LBE21:
 1212               	.LBE20:
 1213               	.LM288:
 1214 0608 3201      		movw r6,r4
 1215 060a 6818      		sub r6,r8
 1216 060c 7908      		sbc r7,r9
 1217 060e 00C0      		rjmp .L67
 1218               	.LVL39:
 1219               	.L26:
 1220 0610 CFEF      		ldi r28,lo8(-1)
 1221 0612 DFEF      		ldi r29,hi8(-1)
 1222               	.L27:
 1223               	.LM289:
 1224 0614 4201      		movw r8,r4
 1225 0616 8618      		sub r8,r6
 1226 0618 9708      		sbc r9,r7
 1227 061a 00C0      		rjmp .L68
 1228               	.LFE8:
 1262               	.Letext0:
DEFINED SYMBOLS
                            *ABS*:00000000 klepsydra.c
C:\Users\DAWIDP~1\AppData\Local\Temp/ccMS2p47.s:2      *ABS*:0000003f __SREG__
C:\Users\DAWIDP~1\AppData\Local\Temp/ccMS2p47.s:3      *ABS*:0000003e __SP_H__
C:\Users\DAWIDP~1\AppData\Local\Temp/ccMS2p47.s:4      *ABS*:0000003d __SP_L__
C:\Users\DAWIDP~1\AppData\Local\Temp/ccMS2p47.s:5      *ABS*:00000034 __CCP__
C:\Users\DAWIDP~1\AppData\Local\Temp/ccMS2p47.s:6      *ABS*:00000000 __tmp_reg__
C:\Users\DAWIDP~1\AppData\Local\Temp/ccMS2p47.s:7      *ABS*:00000001 __zero_reg__
C:\Users\DAWIDP~1\AppData\Local\Temp/ccMS2p47.s:18     .text:00000000 wartoscAdc
C:\Users\DAWIDP~1\AppData\Local\Temp/ccMS2p47.s:39     .text:0000000c main

UNDEFINED SYMBOLS
__divmodhi4
__floatsisf
__mulsf3
__ltsf2
__gtsf2
__fixunssfsi
